; ModuleID = '55/935.cpp'
source_filename = "55/935.cpp"
target datalayout = "e-m:e-p270:32:32-p271:32:32-p272:64:64-i64:64-f80:128-n8:16:32:64-S128"
target triple = "x86_64-pc-linux-gnu"

%"class.std::ios_base::Init" = type { i8 }
%"class.std::basic_istream" = type { i32 (...)**, i64, %"class.std::basic_ios" }
%"class.std::basic_ios" = type { %"class.std::ios_base", %"class.std::basic_ostream"*, i8, i8, %"class.std::basic_streambuf"*, %"class.std::ctype"*, %"class.std::num_put"*, %"class.std::num_get"* }
%"class.std::ios_base" = type { i32 (...)**, i64, i64, i32, i32, i32, %"struct.std::ios_base::_Callback_list"*, %"struct.std::ios_base::_Words", [8 x %"struct.std::ios_base::_Words"], i32, %"struct.std::ios_base::_Words"*, %"class.std::locale" }
%"struct.std::ios_base::_Callback_list" = type { %"struct.std::ios_base::_Callback_list"*, void (i32, %"class.std::ios_base"*, i32)*, i32, i32 }
%"struct.std::ios_base::_Words" = type { i8*, i64 }
%"class.std::locale" = type { %"class.std::locale::_Impl"* }
%"class.std::locale::_Impl" = type { i32, %"class.std::locale::facet"**, i64, %"class.std::locale::facet"**, i8** }
%"class.std::locale::facet" = type <{ i32 (...)**, i32, [4 x i8] }>
%"class.std::basic_ostream" = type { i32 (...)**, %"class.std::basic_ios" }
%"class.std::basic_streambuf" = type { i32 (...)**, i8*, i8*, i8*, i8*, i8*, i8*, %"class.std::locale" }
%"class.std::ctype" = type <{ %"class.std::locale::facet.base", [4 x i8], %struct.__locale_struct*, i8, [7 x i8], i32*, i32*, i16*, i8, [256 x i8], [256 x i8], i8, [6 x i8] }>
%"class.std::locale::facet.base" = type <{ i32 (...)**, i32 }>
%struct.__locale_struct = type { [13 x %struct.__locale_data*], i16*, i32*, i32*, [13 x i8*] }
%struct.__locale_data = type opaque
%"class.std::num_put" = type { %"class.std::locale::facet.base", [4 x i8] }
%"class.std::num_get" = type { %"class.std::locale::facet.base", [4 x i8] }

@_ZStL8__ioinit = internal global %"class.std::ios_base::Init" zeroinitializer, align 1
@__dso_handle = external hidden global i8
@_ZSt3cin = external dso_local global %"class.std::basic_istream", align 8
@_ZSt4cout = external dso_local global %"class.std::basic_ostream", align 8
@llvm.global_ctors = appending global [1 x { i32, void ()*, i8* }] [{ i32, void ()*, i8* } { i32 65535, void ()* @_GLOBAL__sub_I_935.cpp, i8* null }]

; Function Attrs: noinline uwtable
define internal void @__cxx_global_var_init() #0 section ".text.startup" {
  call void @_ZNSt8ios_base4InitC1Ev(%"class.std::ios_base::Init"* @_ZStL8__ioinit)
  %1 = call i32 @__cxa_atexit(void (i8*)* bitcast (void (%"class.std::ios_base::Init"*)* @_ZNSt8ios_base4InitD1Ev to void (i8*)*), i8* getelementptr inbounds (%"class.std::ios_base::Init", %"class.std::ios_base::Init"* @_ZStL8__ioinit, i32 0, i32 0), i8* @__dso_handle) #3
  ret void
}

declare dso_local void @_ZNSt8ios_base4InitC1Ev(%"class.std::ios_base::Init"*) unnamed_addr #1

; Function Attrs: nounwind
declare dso_local void @_ZNSt8ios_base4InitD1Ev(%"class.std::ios_base::Init"*) unnamed_addr #2

; Function Attrs: nounwind
declare dso_local i32 @__cxa_atexit(void (i8*)*, i8*, i8*) #3

; Function Attrs: noinline norecurse uwtable
define dso_local i32 @main() #4 {
  %1 = alloca i32, align 4
  %2 = alloca i32, align 4
  %3 = alloca i32, align 4
  %4 = alloca i32, align 4
  %5 = alloca i32, align 4
  %6 = alloca i32, align 4
  %7 = alloca i32, align 4
  %8 = alloca i32, align 4
  %9 = alloca i32, align 4
  %10 = alloca i32, align 4
  %11 = alloca i32, align 4
  %12 = alloca [100 x i8], align 16
  %13 = alloca [100 x i8], align 16
  %14 = alloca i32, align 4
  store i32 0, i32* %1, align 4
  store i32 0, i32* %7, align 4
  store i32 0, i32* %11, align 4
  %15 = call dereferenceable(280) %"class.std::basic_istream"* @_ZNSirsERi(%"class.std::basic_istream"* @_ZSt3cin, i32* dereferenceable(4) %2)
  %16 = getelementptr inbounds [100 x i8], [100 x i8]* %12, i64 0, i64 0
  %17 = call dereferenceable(280) %"class.std::basic_istream"* @_ZStrsIcSt11char_traitsIcEERSt13basic_istreamIT_T0_ES6_PS3_(%"class.std::basic_istream"* dereferenceable(280) %15, i8* %16)
  %18 = call dereferenceable(280) %"class.std::basic_istream"* @_ZNSirsERi(%"class.std::basic_istream"* %17, i32* dereferenceable(4) %3)
  %19 = getelementptr inbounds [100 x i8], [100 x i8]* %12, i64 0, i64 0
  %20 = call i64 @strlen(i8* %19) #6
  %21 = trunc i64 %20 to i32
  store i32 %21, i32* %5, align 4
  store i32 0, i32* %6, align 4
  br label %22

22:                                               ; preds = %103, %0
  %23 = load i32, i32* %6, align 4
  %24 = load i32, i32* %5, align 4
  %25 = icmp slt i32 %23, %24
  br i1 %25, label %26, label %106

26:                                               ; preds = %22
  store i32 1, i32* %14, align 4
  store i32 0, i32* %10, align 4
  br label %27

27:                                               ; preds = %38, %26
  %28 = load i32, i32* %10, align 4
  %29 = load i32, i32* %5, align 4
  %30 = sub nsw i32 %29, 1
  %31 = load i32, i32* %6, align 4
  %32 = sub nsw i32 %30, %31
  %33 = icmp slt i32 %28, %32
  br i1 %33, label %34, label %41

34:                                               ; preds = %27
  %35 = load i32, i32* %14, align 4
  %36 = load i32, i32* %2, align 4
  %37 = mul nsw i32 %35, %36
  store i32 %37, i32* %14, align 4
  br label %38

38:                                               ; preds = %34
  %39 = load i32, i32* %10, align 4
  %40 = add nsw i32 %39, 1
  store i32 %40, i32* %10, align 4
  br label %27

41:                                               ; preds = %27
  %42 = load i32, i32* %6, align 4
  %43 = sext i32 %42 to i64
  %44 = getelementptr inbounds [100 x i8], [100 x i8]* %12, i64 0, i64 %43
  %45 = load i8, i8* %44, align 1
  %46 = sext i8 %45 to i32
  %47 = icmp sle i32 %46, 57
  br i1 %47, label %48, label %59

48:                                               ; preds = %41
  %49 = load i32, i32* %11, align 4
  %50 = load i32, i32* %6, align 4
  %51 = sext i32 %50 to i64
  %52 = getelementptr inbounds [100 x i8], [100 x i8]* %12, i64 0, i64 %51
  %53 = load i8, i8* %52, align 1
  %54 = sext i8 %53 to i32
  %55 = sub nsw i32 %54, 48
  %56 = load i32, i32* %14, align 4
  %57 = mul nsw i32 %55, %56
  %58 = add nsw i32 %49, %57
  store i32 %58, i32* %11, align 4
  br label %59

59:                                               ; preds = %48, %41
  %60 = load i32, i32* %6, align 4
  %61 = sext i32 %60 to i64
  %62 = getelementptr inbounds [100 x i8], [100 x i8]* %12, i64 0, i64 %61
  %63 = load i8, i8* %62, align 1
  %64 = sext i8 %63 to i32
  %65 = icmp sge i32 %64, 65
  br i1 %65, label %66, label %84

66:                                               ; preds = %59
  %67 = load i32, i32* %6, align 4
  %68 = sext i32 %67 to i64
  %69 = getelementptr inbounds [100 x i8], [100 x i8]* %12, i64 0, i64 %68
  %70 = load i8, i8* %69, align 1
  %71 = sext i8 %70 to i32
  %72 = icmp slt i32 %71, 97
  br i1 %72, label %73, label %84

73:                                               ; preds = %66
  %74 = load i32, i32* %11, align 4
  %75 = load i32, i32* %6, align 4
  %76 = sext i32 %75 to i64
  %77 = getelementptr inbounds [100 x i8], [100 x i8]* %12, i64 0, i64 %76
  %78 = load i8, i8* %77, align 1
  %79 = sext i8 %78 to i32
  %80 = sub nsw i32 %79, 55
  %81 = load i32, i32* %14, align 4
  %82 = mul nsw i32 %80, %81
  %83 = add nsw i32 %74, %82
  store i32 %83, i32* %11, align 4
  br label %84

84:                                               ; preds = %73, %66, %59
  %85 = load i32, i32* %6, align 4
  %86 = sext i32 %85 to i64
  %87 = getelementptr inbounds [100 x i8], [100 x i8]* %12, i64 0, i64 %86
  %88 = load i8, i8* %87, align 1
  %89 = sext i8 %88 to i32
  %90 = icmp sge i32 %89, 97
  br i1 %90, label %91, label %102

91:                                               ; preds = %84
  %92 = load i32, i32* %11, align 4
  %93 = load i32, i32* %6, align 4
  %94 = sext i32 %93 to i64
  %95 = getelementptr inbounds [100 x i8], [100 x i8]* %12, i64 0, i64 %94
  %96 = load i8, i8* %95, align 1
  %97 = sext i8 %96 to i32
  %98 = sub nsw i32 %97, 87
  %99 = load i32, i32* %14, align 4
  %100 = mul nsw i32 %98, %99
  %101 = add nsw i32 %92, %100
  store i32 %101, i32* %11, align 4
  br label %102

102:                                              ; preds = %91, %84
  br label %103

103:                                              ; preds = %102
  %104 = load i32, i32* %6, align 4
  %105 = add nsw i32 %104, 1
  store i32 %105, i32* %6, align 4
  br label %22

106:                                              ; preds = %22
  %107 = load i32, i32* %11, align 4
  store i32 %107, i32* %4, align 4
  br label %108

108:                                              ; preds = %114, %106
  %109 = load i32, i32* %11, align 4
  %110 = load i32, i32* %3, align 4
  %111 = sdiv i32 %109, %110
  store i32 %111, i32* %11, align 4
  %112 = load i32, i32* %7, align 4
  %113 = add nsw i32 %112, 1
  store i32 %113, i32* %7, align 4
  br label %114

114:                                              ; preds = %108
  %115 = load i32, i32* %11, align 4
  %116 = icmp sgt i32 %115, 0
  br i1 %116, label %108, label %117

117:                                              ; preds = %114
  store i32 0, i32* %8, align 4
  br label %118

118:                                              ; preds = %160, %117
  %119 = load i32, i32* %8, align 4
  %120 = load i32, i32* %7, align 4
  %121 = icmp slt i32 %119, %120
  br i1 %121, label %122, label %163

122:                                              ; preds = %118
  %123 = load i32, i32* %4, align 4
  %124 = load i32, i32* %3, align 4
  %125 = srem i32 %123, %124
  %126 = icmp slt i32 %125, 10
  br i1 %126, label %127, label %139

127:                                              ; preds = %122
  %128 = load i32, i32* %4, align 4
  %129 = load i32, i32* %3, align 4
  %130 = srem i32 %128, %129
  %131 = add nsw i32 %130, 48
  %132 = trunc i32 %131 to i8
  %133 = load i32, i32* %7, align 4
  %134 = sub nsw i32 %133, 1
  %135 = load i32, i32* %8, align 4
  %136 = sub nsw i32 %134, %135
  %137 = sext i32 %136 to i64
  %138 = getelementptr inbounds [100 x i8], [100 x i8]* %13, i64 0, i64 %137
  store i8 %132, i8* %138, align 1
  br label %139

139:                                              ; preds = %127, %122
  %140 = load i32, i32* %4, align 4
  %141 = load i32, i32* %3, align 4
  %142 = srem i32 %140, %141
  %143 = icmp sge i32 %142, 10
  br i1 %143, label %144, label %156

144:                                              ; preds = %139
  %145 = load i32, i32* %4, align 4
  %146 = load i32, i32* %3, align 4
  %147 = srem i32 %145, %146
  %148 = add nsw i32 %147, 55
  %149 = trunc i32 %148 to i8
  %150 = load i32, i32* %7, align 4
  %151 = sub nsw i32 %150, 1
  %152 = load i32, i32* %8, align 4
  %153 = sub nsw i32 %151, %152
  %154 = sext i32 %153 to i64
  %155 = getelementptr inbounds [100 x i8], [100 x i8]* %13, i64 0, i64 %154
  store i8 %149, i8* %155, align 1
  br label %156

156:                                              ; preds = %144, %139
  %157 = load i32, i32* %4, align 4
  %158 = load i32, i32* %3, align 4
  %159 = sdiv i32 %157, %158
  store i32 %159, i32* %4, align 4
  br label %160

160:                                              ; preds = %156
  %161 = load i32, i32* %8, align 4
  %162 = add nsw i32 %161, 1
  store i32 %162, i32* %8, align 4
  br label %118

163:                                              ; preds = %118
  store i32 0, i32* %9, align 4
  br label %164

164:                                              ; preds = %174, %163
  %165 = load i32, i32* %9, align 4
  %166 = load i32, i32* %7, align 4
  %167 = icmp slt i32 %165, %166
  br i1 %167, label %168, label %177

168:                                              ; preds = %164
  %169 = load i32, i32* %9, align 4
  %170 = sext i32 %169 to i64
  %171 = getelementptr inbounds [100 x i8], [100 x i8]* %13, i64 0, i64 %170
  %172 = load i8, i8* %171, align 1
  %173 = call dereferenceable(272) %"class.std::basic_ostream"* @_ZStlsISt11char_traitsIcEERSt13basic_ostreamIcT_ES5_c(%"class.std::basic_ostream"* dereferenceable(272) @_ZSt4cout, i8 signext %172)
  br label %174

174:                                              ; preds = %168
  %175 = load i32, i32* %9, align 4
  %176 = add nsw i32 %175, 1
  store i32 %176, i32* %9, align 4
  br label %164

177:                                              ; preds = %164
  ret i32 0
}

declare dso_local dereferenceable(280) %"class.std::basic_istream"* @_ZStrsIcSt11char_traitsIcEERSt13basic_istreamIT_T0_ES6_PS3_(%"class.std::basic_istream"* dereferenceable(280), i8*) #1

declare dso_local dereferenceable(280) %"class.std::basic_istream"* @_ZNSirsERi(%"class.std::basic_istream"*, i32* dereferenceable(4)) #1

; Function Attrs: nounwind readonly
declare dso_local i64 @strlen(i8*) #5

declare dso_local dereferenceable(272) %"class.std::basic_ostream"* @_ZStlsISt11char_traitsIcEERSt13basic_ostreamIcT_ES5_c(%"class.std::basic_ostream"* dereferenceable(272), i8 signext) #1

; Function Attrs: noinline uwtable
define internal void @_GLOBAL__sub_I_935.cpp() #0 section ".text.startup" {
  call void @__cxx_global_var_init()
  ret void
}


!llvm.module.flags = !{!0}
!llvm.ident = !{!1}

!0 = !{i32 1, !"wchar_size", i32 4}
!1 = !{!"clang version 10.0.0-4ubuntu1 "}
